
riscv.elf:     file format elf32-littleriscv
riscv.elf
architecture: riscv:rv32, flags 0x00000112:
EXEC_P, HAS_SYMS, D_PAGED
start address 0x00000000

Program Header:
    LOAD off    0x00001000 vaddr 0x00000000 paddr 0x00000000 align 2**12
         filesz 0x00000458 memsz 0x00000458 flags r-x
    LOAD off    0x00002000 vaddr 0x10000000 paddr 0x10000000 align 2**12
         filesz 0x00000000 memsz 0x00000110 flags rw-

Sections:
Idx Name           Size      VMA       LMA       File off  Algn  Flags
  0 .text          00000458  00000000  00000000  00001000  2**4  CONTENTS, ALLOC, LOAD, READONLY, CODE
  1 .data          00000000  10000000  10000000  00001458  2**0  CONTENTS, ALLOC, LOAD, DATA
  2 .bss           00000008  10000000  10000000  00002000  2**2  ALLOC
  3 .stack         00000108  10000008  10000008  00002000  2**0  ALLOC
  4 .debug_line    000007c7  00000000  00000000  00001458  2**0  CONTENTS, READONLY, DEBUGGING
  5 .debug_info    00000486  00000000  00000000  00001c1f  2**0  CONTENTS, READONLY, DEBUGGING
  6 .debug_abbrev  0000029f  00000000  00000000  000020a5  2**0  CONTENTS, READONLY, DEBUGGING
  7 .debug_aranges 00000088  00000000  00000000  00002348  2**3  CONTENTS, READONLY, DEBUGGING
  8 .debug_str     00003441  00000000  00000000  000023d0  2**0  CONTENTS, READONLY, DEBUGGING
  9 .debug_ranges  00000038  00000000  00000000  00005811  2**0  CONTENTS, READONLY, DEBUGGING
 10 .debug_macro   00000d0d  00000000  00000000  00005849  2**0  CONTENTS, READONLY, DEBUGGING
 11 .comment       00000039  00000000  00000000  00006556  2**0  CONTENTS, READONLY
 12 .debug_frame   000000b8  00000000  00000000  00006590  2**2  CONTENTS, READONLY, DEBUGGING
SYMBOL TABLE:
00000000 l    d  .text	00000000 .text
10000000 l    d  .data	00000000 .data
10000000 l    d  .bss	00000000 .bss
10000008 l    d  .stack	00000000 .stack
00000000 l    d  .debug_line	00000000 .debug_line
00000000 l    d  .debug_info	00000000 .debug_info
00000000 l    d  .debug_abbrev	00000000 .debug_abbrev
00000000 l    d  .debug_aranges	00000000 .debug_aranges
00000000 l    d  .debug_str	00000000 .debug_str
00000000 l    d  .debug_ranges	00000000 .debug_ranges
00000000 l    d  .debug_macro	00000000 .debug_macro
00000000 l    d  .comment	00000000 .comment
00000000 l    d  .debug_frame	00000000 .debug_frame
00000000 l    df *ABS*	00000000 ./Core/Startup/start.o
00000024 l       .text	00000000 end_init_bss
00000018 l       .text	00000000 loop_init_bss
00000000 l    df *ABS*	00000000 gpio.c
00000000 l    df *ABS*	00000000 main.c
00000000 l    df *ABS*	00000000 tm1638.c
100007f0 g       .data	00000000 __global_pointer$
00000458 g       .text	00000000 _etext
10000000 g       .bss	00000000 _sbss
0000003c g     F .text	00000048 .hidden __udivsi3
000000e8 g     F .text	00000034 GPIO_Init
10000000 g       .data	00000000 _sdata
10000008 g       .bss	00000000 _ebss
00000084 g     F .text	00000010 .hidden __umodsi3
00000200 g     F .text	00000224 dig_transform
10000004 g     O .bss	00000004 c
00000100 g       *ABS*	00000000 _stack_size
0000011c g     F .text	000000e4 main
00000424 g     F .text	00000034 TM1638_Init
00000034 g     F .text	00000084 .hidden __divsi3
10000110 g       .stack	00000000 _estack
10000000 g       .data	00000000 _edata
000000b8 g     F .text	00000030 .hidden __modsi3
00000000 g       .text	00000000 start
10000000 g     O .bss	00000004 keys



Disassembly of section .text:

00000000 <start>:
start():
D:\GitHub\askorv32\fw\Debug/../Core/Startup/start.S:19
.global main

start:
	.option push
	.option norelax
	la gp, __global_pointer$
   0:	10000197          	auipc	gp,0x10000
   4:	7f018193          	addi	gp,gp,2032 # 100007f0 <__global_pointer$>
D:\GitHub\askorv32\fw\Debug/../Core/Startup/start.S:21
	.option pop
  	la sp, _estack
   8:	92018113          	addi	sp,gp,-1760 # 10000110 <_estack>
D:\GitHub\askorv32\fw\Debug/../Core/Startup/start.S:59
	addi x30, zero, 0
	addi x31, zero, 0
	*/

# Инициализация секции bss нулевыми значениями
	la a0, _sbss
   c:	81018513          	addi	a0,gp,-2032 # 10000000 <_edata>
D:\GitHub\askorv32\fw\Debug/../Core/Startup/start.S:60
	la a1, _ebss
  10:	81818593          	addi	a1,gp,-2024 # 10000008 <_ebss>
D:\GitHub\askorv32\fw\Debug/../Core/Startup/start.S:61
	bge a0, a1, end_init_bss
  14:	00b55863          	bge	a0,a1,24 <end_init_bss>

00000018 <loop_init_bss>:
loop_init_bss():
D:\GitHub\askorv32\fw\Debug/../Core/Startup/start.S:63
loop_init_bss:
	sw zero, 0(a0)
  18:	00052023          	sw	zero,0(a0)
D:\GitHub\askorv32\fw\Debug/../Core/Startup/start.S:64
	addi a0, a0, 4
  1c:	00450513          	addi	a0,a0,4
D:\GitHub\askorv32\fw\Debug/../Core/Startup/start.S:65
	blt a0, a1, loop_init_bss
  20:	feb54ce3          	blt	a0,a1,18 <loop_init_bss>

00000024 <end_init_bss>:
end_init_bss():
D:\GitHub\askorv32\fw\Debug/../Core/Startup/start.S:69
end_init_bss:

# Переход к функции main
	call main
  24:	0f8000ef          	jal	ra,11c <main>
	...

00000034 <__divsi3>:
__divsi3():
  34:	06054063          	bltz	a0,94 <__umodsi3+0x10>
  38:	0605c663          	bltz	a1,a4 <__umodsi3+0x20>

0000003c <__udivsi3>:
  3c:	00058613          	mv	a2,a1
  40:	00050593          	mv	a1,a0
  44:	fff00513          	li	a0,-1
  48:	02060c63          	beqz	a2,80 <__udivsi3+0x44>
  4c:	00100693          	li	a3,1
  50:	00b67a63          	bgeu	a2,a1,64 <__udivsi3+0x28>
  54:	00c05863          	blez	a2,64 <__udivsi3+0x28>
  58:	00161613          	slli	a2,a2,0x1
  5c:	00169693          	slli	a3,a3,0x1
  60:	feb66ae3          	bltu	a2,a1,54 <__udivsi3+0x18>
  64:	00000513          	li	a0,0
  68:	00c5e663          	bltu	a1,a2,74 <__udivsi3+0x38>
  6c:	40c585b3          	sub	a1,a1,a2
  70:	00d56533          	or	a0,a0,a3
  74:	0016d693          	srli	a3,a3,0x1
  78:	00165613          	srli	a2,a2,0x1
  7c:	fe0696e3          	bnez	a3,68 <__udivsi3+0x2c>
  80:	00008067          	ret

00000084 <__umodsi3>:
  84:	00008293          	mv	t0,ra
  88:	fb5ff0ef          	jal	ra,3c <__udivsi3>
  8c:	00058513          	mv	a0,a1
  90:	00028067          	jr	t0
  94:	40a00533          	neg	a0,a0
  98:	0005d863          	bgez	a1,a8 <__umodsi3+0x24>
  9c:	40b005b3          	neg	a1,a1
  a0:	f9dff06f          	j	3c <__udivsi3>
  a4:	40b005b3          	neg	a1,a1
  a8:	00008293          	mv	t0,ra
  ac:	f91ff0ef          	jal	ra,3c <__udivsi3>
  b0:	40a00533          	neg	a0,a0
  b4:	00028067          	jr	t0

000000b8 <__modsi3>:
__modsi3():
  b8:	00008293          	mv	t0,ra
  bc:	0005ca63          	bltz	a1,d0 <__modsi3+0x18>
  c0:	00054c63          	bltz	a0,d8 <__modsi3+0x20>
  c4:	f79ff0ef          	jal	ra,3c <__udivsi3>
  c8:	00058513          	mv	a0,a1
  cc:	00028067          	jr	t0
  d0:	40b005b3          	neg	a1,a1
  d4:	fe0558e3          	bgez	a0,c4 <__modsi3+0xc>
  d8:	40a00533          	neg	a0,a0
  dc:	f61ff0ef          	jal	ra,3c <__udivsi3>
  e0:	40b00533          	neg	a0,a1
  e4:	00028067          	jr	t0

000000e8 <GPIO_Init>:
GPIO_Init():
D:\GitHub\askorv32\fw\Debug/../Core/Src/gpio.c:12
 *****************************************************************************************
 */

#include "gpio.h"

void GPIO_Init(void) {
  e8:	ff010113          	addi	sp,sp,-16
  ec:	00812623          	sw	s0,12(sp)
  f0:	01010413          	addi	s0,sp,16
D:\GitHub\askorv32\fw\Debug/../Core/Src/gpio.c:13
	GPIO->MODE = 0;
  f4:	110007b7          	lui	a5,0x11000
  f8:	0007a023          	sw	zero,0(a5) # 11000000 <__global_pointer$+0xfff810>
D:\GitHub\askorv32\fw\Debug/../Core/Src/gpio.c:14
	GPIO->OUT  = 0;
  fc:	110007b7          	lui	a5,0x11000
 100:	0007a223          	sw	zero,4(a5) # 11000004 <__global_pointer$+0xfff814>
D:\GitHub\askorv32\fw\Debug/../Core/Src/gpio.c:15
	GPIO->IN   = 0;
 104:	110007b7          	lui	a5,0x11000
 108:	0007a423          	sw	zero,8(a5) # 11000008 <__global_pointer$+0xfff818>
D:\GitHub\askorv32\fw\Debug/../Core/Src/gpio.c:16
}
 10c:	00000013          	nop
 110:	00c12403          	lw	s0,12(sp)
 114:	01010113          	addi	sp,sp,16
 118:	00008067          	ret

0000011c <main>:
main():
D:\GitHub\askorv32\fw\Debug/../Core/Src/main.c:13
//unsigned int globalvar = 5;
unsigned int c;
unsigned int keys = 0;
unsigned int tn_keys = 0;

int main(void) {
 11c:	fd010113          	addi	sp,sp,-48
 120:	02112623          	sw	ra,44(sp)
 124:	02812423          	sw	s0,40(sp)
 128:	03010413          	addi	s0,sp,48
D:\GitHub\askorv32\fw\Debug/../Core/Src/main.c:15
	//#1 Инициализация периферийных устройства
	GPIO_Init();
 12c:	fbdff0ef          	jal	ra,e8 <GPIO_Init>
D:\GitHub\askorv32\fw\Debug/../Core/Src/main.c:16
	TM1638_Init();
 130:	2f4000ef          	jal	ra,424 <TM1638_Init>
D:\GitHub\askorv32\fw\Debug/../Core/Src/main.c:17
	c = 1;
 134:	81418793          	addi	a5,gp,-2028 # 10000004 <c>
 138:	00100713          	li	a4,1
 13c:	00e7a023          	sw	a4,0(a5)
 140:	fff00793          	li	a5,-1
 144:	fef42423          	sw	a5,-24(s0)
GPIO_PinsMode():
D:\GitHub\askorv32\fw\Core\Inc/gpio.h:54
__INLINE GPIO_PinState GPIO_ReadPin(GPIO_PinName GPIO_Pin) {
	return (GPIO->IN >> GPIO_Pin) & 0x1;
}

__INLINE void GPIO_PinsMode(uint32_t PinsDir) {
	GPIO->MODE = PinsDir;
 148:	110007b7          	lui	a5,0x11000
 14c:	fe842703          	lw	a4,-24(s0)
 150:	00e7a023          	sw	a4,0(a5) # 11000000 <__global_pointer$+0xfff810>
main():
D:\GitHub\askorv32\fw\Debug/../Core/Src/main.c:20
	GPIO_PinsMode(0xFFFFFFFF); //Все порты на выход
	while(1) {
		c = c + 1;
 154:	81418793          	addi	a5,gp,-2028 # 10000004 <c>
 158:	0007a783          	lw	a5,0(a5)
 15c:	00178713          	addi	a4,a5,1
 160:	81418793          	addi	a5,gp,-2028 # 10000004 <c>
 164:	00e7a023          	sw	a4,0(a5)
D:\GitHub\askorv32\fw\Debug/../Core/Src/main.c:22
		//#Светодиоды tangnano
		GPIO_WritePins(~c);
 168:	81418793          	addi	a5,gp,-2028 # 10000004 <c>
 16c:	0007a783          	lw	a5,0(a5)
 170:	fff7c793          	not	a5,a5
 174:	fcf42e23          	sw	a5,-36(s0)
GPIO_WritePins():
D:\GitHub\askorv32\fw\Core\Inc/gpio.h:58
}

__INLINE void GPIO_WritePins(uint32_t PinsState) {
	GPIO->OUT = PinsState;
 178:	110007b7          	lui	a5,0x11000
 17c:	fdc42703          	lw	a4,-36(s0)
 180:	00e7a223          	sw	a4,4(a5) # 11000004 <__global_pointer$+0xfff814>
TM1638_ReadKeys():
D:\GitHub\askorv32\fw\Core\Inc/tm1638.h:56
__INLINE void TM1638_WriteLeds(uint32_t data) {
	TM1638->LEDS = data;
}

__INLINE uint32_t TM1638_ReadKeys(void) {
	return TM1638->KEYS;
 184:	120007b7          	lui	a5,0x12000
 188:	0087a703          	lw	a4,8(a5) # 12000008 <__global_pointer$+0x1fff818>
main():
D:\GitHub\askorv32\fw\Debug/../Core/Src/main.c:25

		//#Светодиоды tm1638
		keys = TM1638_ReadKeys();
 18c:	10000797          	auipc	a5,0x10000
 190:	e7478793          	addi	a5,a5,-396 # 10000000 <_edata>
 194:	00e7a023          	sw	a4,0(a5)
D:\GitHub\askorv32\fw\Debug/../Core/Src/main.c:26
		TM1638_WriteLeds(keys);
 198:	10000797          	auipc	a5,0x10000
 19c:	e6878793          	addi	a5,a5,-408 # 10000000 <_edata>
 1a0:	0007a783          	lw	a5,0(a5)
 1a4:	fef42023          	sw	a5,-32(s0)
TM1638_WriteLeds():
D:\GitHub\askorv32\fw\Core\Inc/tm1638.h:52
	TM1638->LEDS = data;
 1a8:	120007b7          	lui	a5,0x12000
 1ac:	fe042703          	lw	a4,-32(s0)
 1b0:	00e7a223          	sw	a4,4(a5) # 12000004 <__global_pointer$+0x1fff814>
main():
D:\GitHub\askorv32\fw\Debug/../Core/Src/main.c:30

		//#Сегментный индикатор tm1638
		//TM1638_WriteSegs(c);
		TM1638_WriteSegs(dig_transform(c));
 1b4:	81418793          	addi	a5,gp,-2028 # 10000004 <c>
 1b8:	0007a783          	lw	a5,0(a5)
 1bc:	00078513          	mv	a0,a5
 1c0:	040000ef          	jal	ra,200 <dig_transform>
 1c4:	00050793          	mv	a5,a0
 1c8:	fef42223          	sw	a5,-28(s0)
TM1638_WriteSegs():
D:\GitHub\askorv32\fw\Core\Inc/tm1638.h:48
	TM1638->SEGS = data;
 1cc:	120007b7          	lui	a5,0x12000
 1d0:	fe442703          	lw	a4,-28(s0)
 1d4:	00e7a023          	sw	a4,0(a5) # 12000000 <__global_pointer$+0x1fff810>
main():
D:\GitHub\askorv32\fw\Debug/../Core/Src/main.c:31
		for(int i = 0; i<100000; i++);
 1d8:	fe042623          	sw	zero,-20(s0)
 1dc:	0100006f          	j	1ec <main+0xd0>
D:\GitHub\askorv32\fw\Debug/../Core/Src/main.c:31 (discriminator 3)
 1e0:	fec42783          	lw	a5,-20(s0)
 1e4:	00178793          	addi	a5,a5,1
 1e8:	fef42623          	sw	a5,-20(s0)
D:\GitHub\askorv32\fw\Debug/../Core/Src/main.c:31 (discriminator 1)
 1ec:	fec42703          	lw	a4,-20(s0)
 1f0:	000187b7          	lui	a5,0x18
 1f4:	69f78793          	addi	a5,a5,1695 # 1869f <_etext+0x18247>
 1f8:	fee7d4e3          	bge	a5,a4,1e0 <main+0xc4>
D:\GitHub\askorv32\fw\Debug/../Core/Src/main.c:20
		c = c + 1;
 1fc:	f59ff06f          	j	154 <main+0x38>

00000200 <dig_transform>:
dig_transform():
D:\GitHub\askorv32\fw\Debug/../Core/Src/main.c:35
	}
}

unsigned int dig_transform(unsigned int digit) {
 200:	fd010113          	addi	sp,sp,-48
 204:	02112623          	sw	ra,44(sp)
 208:	02812423          	sw	s0,40(sp)
 20c:	03010413          	addi	s0,sp,48
 210:	fca42e23          	sw	a0,-36(s0)
D:\GitHub\askorv32\fw\Debug/../Core/Src/main.c:36
	unsigned int d_out = 0;
 214:	fe042623          	sw	zero,-20(s0)
D:\GitHub\askorv32\fw\Debug/../Core/Src/main.c:37
	unsigned int d_in  = digit;
 218:	fdc42783          	lw	a5,-36(s0)
 21c:	fef42423          	sw	a5,-24(s0)
D:\GitHub\askorv32\fw\Debug/../Core/Src/main.c:38
	d_in = d_in % 100000000;
 220:	fe842703          	lw	a4,-24(s0)
 224:	05f5e7b7          	lui	a5,0x5f5e
 228:	10078593          	addi	a1,a5,256 # 5f5e100 <_etext+0x5f5dca8>
 22c:	00070513          	mv	a0,a4
 230:	e55ff0ef          	jal	ra,84 <__umodsi3>
 234:	00050793          	mv	a5,a0
 238:	fef42423          	sw	a5,-24(s0)
D:\GitHub\askorv32\fw\Debug/../Core/Src/main.c:39
	d_out = d_out | ((d_in / 10000000) << 28);
 23c:	fe842703          	lw	a4,-24(s0)
 240:	009897b7          	lui	a5,0x989
 244:	68078593          	addi	a1,a5,1664 # 989680 <_etext+0x989228>
 248:	00070513          	mv	a0,a4
 24c:	df1ff0ef          	jal	ra,3c <__udivsi3>
 250:	00050793          	mv	a5,a0
 254:	01c79793          	slli	a5,a5,0x1c
 258:	fec42703          	lw	a4,-20(s0)
 25c:	00f767b3          	or	a5,a4,a5
 260:	fef42623          	sw	a5,-20(s0)
D:\GitHub\askorv32\fw\Debug/../Core/Src/main.c:40
	d_in = d_in % 10000000;
 264:	fe842703          	lw	a4,-24(s0)
 268:	009897b7          	lui	a5,0x989
 26c:	68078593          	addi	a1,a5,1664 # 989680 <_etext+0x989228>
 270:	00070513          	mv	a0,a4
 274:	e11ff0ef          	jal	ra,84 <__umodsi3>
 278:	00050793          	mv	a5,a0
 27c:	fef42423          	sw	a5,-24(s0)
D:\GitHub\askorv32\fw\Debug/../Core/Src/main.c:41
	d_out = d_out | ((d_in / 1000000)  << 24);
 280:	fe842703          	lw	a4,-24(s0)
 284:	000f47b7          	lui	a5,0xf4
 288:	24078593          	addi	a1,a5,576 # f4240 <_etext+0xf3de8>
 28c:	00070513          	mv	a0,a4
 290:	dadff0ef          	jal	ra,3c <__udivsi3>
 294:	00050793          	mv	a5,a0
 298:	01879793          	slli	a5,a5,0x18
 29c:	fec42703          	lw	a4,-20(s0)
 2a0:	00f767b3          	or	a5,a4,a5
 2a4:	fef42623          	sw	a5,-20(s0)
D:\GitHub\askorv32\fw\Debug/../Core/Src/main.c:42
	d_in = d_in % 1000000;
 2a8:	fe842703          	lw	a4,-24(s0)
 2ac:	000f47b7          	lui	a5,0xf4
 2b0:	24078593          	addi	a1,a5,576 # f4240 <_etext+0xf3de8>
 2b4:	00070513          	mv	a0,a4
 2b8:	dcdff0ef          	jal	ra,84 <__umodsi3>
 2bc:	00050793          	mv	a5,a0
 2c0:	fef42423          	sw	a5,-24(s0)
D:\GitHub\askorv32\fw\Debug/../Core/Src/main.c:43
	d_out = d_out | ((d_in / 100000)   << 20);
 2c4:	fe842703          	lw	a4,-24(s0)
 2c8:	000187b7          	lui	a5,0x18
 2cc:	6a078593          	addi	a1,a5,1696 # 186a0 <_etext+0x18248>
 2d0:	00070513          	mv	a0,a4
 2d4:	d69ff0ef          	jal	ra,3c <__udivsi3>
 2d8:	00050793          	mv	a5,a0
 2dc:	01479793          	slli	a5,a5,0x14
 2e0:	fec42703          	lw	a4,-20(s0)
 2e4:	00f767b3          	or	a5,a4,a5
 2e8:	fef42623          	sw	a5,-20(s0)
D:\GitHub\askorv32\fw\Debug/../Core/Src/main.c:44
	d_in = d_in % 100000;
 2ec:	fe842703          	lw	a4,-24(s0)
 2f0:	000187b7          	lui	a5,0x18
 2f4:	6a078593          	addi	a1,a5,1696 # 186a0 <_etext+0x18248>
 2f8:	00070513          	mv	a0,a4
 2fc:	d89ff0ef          	jal	ra,84 <__umodsi3>
 300:	00050793          	mv	a5,a0
 304:	fef42423          	sw	a5,-24(s0)
D:\GitHub\askorv32\fw\Debug/../Core/Src/main.c:45
	d_out = d_out | ((d_in / 10000)    << 16);
 308:	fe842703          	lw	a4,-24(s0)
 30c:	000027b7          	lui	a5,0x2
 310:	71078593          	addi	a1,a5,1808 # 2710 <_etext+0x22b8>
 314:	00070513          	mv	a0,a4
 318:	d25ff0ef          	jal	ra,3c <__udivsi3>
 31c:	00050793          	mv	a5,a0
 320:	01079793          	slli	a5,a5,0x10
 324:	fec42703          	lw	a4,-20(s0)
 328:	00f767b3          	or	a5,a4,a5
 32c:	fef42623          	sw	a5,-20(s0)
D:\GitHub\askorv32\fw\Debug/../Core/Src/main.c:46
	d_in = d_in % 10000;
 330:	fe842703          	lw	a4,-24(s0)
 334:	000027b7          	lui	a5,0x2
 338:	71078593          	addi	a1,a5,1808 # 2710 <_etext+0x22b8>
 33c:	00070513          	mv	a0,a4
 340:	d45ff0ef          	jal	ra,84 <__umodsi3>
 344:	00050793          	mv	a5,a0
 348:	fef42423          	sw	a5,-24(s0)
D:\GitHub\askorv32\fw\Debug/../Core/Src/main.c:47
	d_out = d_out | ((d_in / 1000)     << 12);
 34c:	fe842783          	lw	a5,-24(s0)
 350:	3e800593          	li	a1,1000
 354:	00078513          	mv	a0,a5
 358:	ce5ff0ef          	jal	ra,3c <__udivsi3>
 35c:	00050793          	mv	a5,a0
 360:	00c79793          	slli	a5,a5,0xc
 364:	fec42703          	lw	a4,-20(s0)
 368:	00f767b3          	or	a5,a4,a5
 36c:	fef42623          	sw	a5,-20(s0)
D:\GitHub\askorv32\fw\Debug/../Core/Src/main.c:48
	d_in = d_in % 1000;
 370:	fe842783          	lw	a5,-24(s0)
 374:	3e800593          	li	a1,1000
 378:	00078513          	mv	a0,a5
 37c:	d09ff0ef          	jal	ra,84 <__umodsi3>
 380:	00050793          	mv	a5,a0
 384:	fef42423          	sw	a5,-24(s0)
D:\GitHub\askorv32\fw\Debug/../Core/Src/main.c:49
	d_out = d_out | ((d_in / 100)      <<  8);
 388:	fe842783          	lw	a5,-24(s0)
 38c:	06400593          	li	a1,100
 390:	00078513          	mv	a0,a5
 394:	ca9ff0ef          	jal	ra,3c <__udivsi3>
 398:	00050793          	mv	a5,a0
 39c:	00879793          	slli	a5,a5,0x8
 3a0:	fec42703          	lw	a4,-20(s0)
 3a4:	00f767b3          	or	a5,a4,a5
 3a8:	fef42623          	sw	a5,-20(s0)
D:\GitHub\askorv32\fw\Debug/../Core/Src/main.c:50
	d_in = d_in % 100;
 3ac:	fe842783          	lw	a5,-24(s0)
 3b0:	06400593          	li	a1,100
 3b4:	00078513          	mv	a0,a5
 3b8:	ccdff0ef          	jal	ra,84 <__umodsi3>
 3bc:	00050793          	mv	a5,a0
 3c0:	fef42423          	sw	a5,-24(s0)
D:\GitHub\askorv32\fw\Debug/../Core/Src/main.c:51
	d_out = d_out | ((d_in / 10)       <<  4);
 3c4:	fe842783          	lw	a5,-24(s0)
 3c8:	00a00593          	li	a1,10
 3cc:	00078513          	mv	a0,a5
 3d0:	c6dff0ef          	jal	ra,3c <__udivsi3>
 3d4:	00050793          	mv	a5,a0
 3d8:	00479793          	slli	a5,a5,0x4
 3dc:	fec42703          	lw	a4,-20(s0)
 3e0:	00f767b3          	or	a5,a4,a5
 3e4:	fef42623          	sw	a5,-20(s0)
D:\GitHub\askorv32\fw\Debug/../Core/Src/main.c:52
	d_out = d_out |  (d_in % 10);
 3e8:	fe842783          	lw	a5,-24(s0)
 3ec:	00a00593          	li	a1,10
 3f0:	00078513          	mv	a0,a5
 3f4:	c91ff0ef          	jal	ra,84 <__umodsi3>
 3f8:	00050793          	mv	a5,a0
 3fc:	00078713          	mv	a4,a5
 400:	fec42783          	lw	a5,-20(s0)
 404:	00e7e7b3          	or	a5,a5,a4
 408:	fef42623          	sw	a5,-20(s0)
D:\GitHub\askorv32\fw\Debug/../Core/Src/main.c:53
	return d_out;
 40c:	fec42783          	lw	a5,-20(s0)
D:\GitHub\askorv32\fw\Debug/../Core/Src/main.c:54
}
 410:	00078513          	mv	a0,a5
 414:	02c12083          	lw	ra,44(sp)
 418:	02812403          	lw	s0,40(sp)
 41c:	03010113          	addi	sp,sp,48
 420:	00008067          	ret

00000424 <TM1638_Init>:
TM1638_Init():
D:\GitHub\askorv32\fw\Debug/../Core/Src/tm1638.c:12
 *****************************************************************************************
 */

#include "tm1638.h"

void TM1638_Init(void) {
 424:	ff010113          	addi	sp,sp,-16
 428:	00812623          	sw	s0,12(sp)
 42c:	01010413          	addi	s0,sp,16
D:\GitHub\askorv32\fw\Debug/../Core/Src/tm1638.c:13
	TM1638->SEGS = 0;
 430:	120007b7          	lui	a5,0x12000
 434:	0007a023          	sw	zero,0(a5) # 12000000 <__global_pointer$+0x1fff810>
D:\GitHub\askorv32\fw\Debug/../Core/Src/tm1638.c:14
	TM1638->LEDS = 0;
 438:	120007b7          	lui	a5,0x12000
 43c:	0007a223          	sw	zero,4(a5) # 12000004 <__global_pointer$+0x1fff814>
D:\GitHub\askorv32\fw\Debug/../Core/Src/tm1638.c:15
	TM1638->KEYS = 0; //Можно не записывать нули
 440:	120007b7          	lui	a5,0x12000
 444:	0007a423          	sw	zero,8(a5) # 12000008 <__global_pointer$+0x1fff818>
D:\GitHub\askorv32\fw\Debug/../Core/Src/tm1638.c:16
}
 448:	00000013          	nop
 44c:	00c12403          	lw	s0,12(sp)
 450:	01010113          	addi	sp,sp,16
 454:	00008067          	ret
