
riscv.elf:     file format elf32-littleriscv
riscv.elf
architecture: riscv:rv32, flags 0x00000112:
EXEC_P, HAS_SYMS, D_PAGED
start address 0x00000000

Program Header:
    LOAD off    0x00001000 vaddr 0x00000000 paddr 0x00000000 align 2**12
         filesz 0x000004b4 memsz 0x000004b4 flags r-x
    LOAD off    0x00002000 vaddr 0x10000000 paddr 0x10000000 align 2**12
         filesz 0x00000000 memsz 0x00000110 flags rw-

Sections:
Idx Name           Size      VMA       LMA       File off  Algn  Flags
  0 .text          000004b4  00000000  00000000  00001000  2**4  CONTENTS, ALLOC, LOAD, READONLY, CODE
  1 .data          00000000  10000000  10000000  000014b4  2**0  CONTENTS, ALLOC, LOAD, DATA
  2 .bss           00000008  10000000  10000000  00002000  2**2  ALLOC
  3 .stack         00000108  10000008  10000008  00002000  2**0  ALLOC
  4 .debug_line    000009bb  00000000  00000000  000014b4  2**0  CONTENTS, READONLY, DEBUGGING
  5 .debug_info    000006a3  00000000  00000000  00001e6f  2**0  CONTENTS, READONLY, DEBUGGING
  6 .debug_abbrev  000003a6  00000000  00000000  00002512  2**0  CONTENTS, READONLY, DEBUGGING
  7 .debug_aranges 000000a8  00000000  00000000  000028b8  2**3  CONTENTS, READONLY, DEBUGGING
  8 .debug_str     00003636  00000000  00000000  00002960  2**0  CONTENTS, READONLY, DEBUGGING
  9 .debug_ranges  00000048  00000000  00000000  00005f96  2**0  CONTENTS, READONLY, DEBUGGING
 10 .debug_macro   00000def  00000000  00000000  00005fde  2**0  CONTENTS, READONLY, DEBUGGING
 11 .comment       00000039  00000000  00000000  00006dcd  2**0  CONTENTS, READONLY
 12 .debug_frame   000000e8  00000000  00000000  00006e08  2**2  CONTENTS, READONLY, DEBUGGING
SYMBOL TABLE:
00000000 l    d  .text	00000000 .text
10000000 l    d  .data	00000000 .data
10000000 l    d  .bss	00000000 .bss
10000008 l    d  .stack	00000000 .stack
00000000 l    d  .debug_line	00000000 .debug_line
00000000 l    d  .debug_info	00000000 .debug_info
00000000 l    d  .debug_abbrev	00000000 .debug_abbrev
00000000 l    d  .debug_aranges	00000000 .debug_aranges
00000000 l    d  .debug_str	00000000 .debug_str
00000000 l    d  .debug_ranges	00000000 .debug_ranges
00000000 l    d  .debug_macro	00000000 .debug_macro
00000000 l    d  .comment	00000000 .comment
00000000 l    d  .debug_frame	00000000 .debug_frame
00000000 l    df *ABS*	00000000 ./Core/Startup/start.o
00000024 l       .text	00000000 end_init_bss
00000018 l       .text	00000000 loop_init_bss
00000000 l    df *ABS*	00000000 gpio.c
00000000 l    df *ABS*	00000000 main.c
00000000 l    df *ABS*	00000000 tim.c
00000000 l    df *ABS*	00000000 tm1638.c
100007f0 g       .data	00000000 __global_pointer$
000004b4 g       .text	00000000 _etext
10000000 g       .bss	00000000 _sbss
0000003c g     F .text	00000048 .hidden __udivsi3
000000e8 g     F .text	00000034 GPIO_Init
10000000 g       .data	00000000 _sdata
10000008 g       .bss	00000000 _ebss
00000414 g     F .text	0000006c STIM_Init
00000084 g     F .text	00000010 .hidden __umodsi3
000001f0 g     F .text	00000224 dig_transform
10000004 g     O .bss	00000004 c
00000100 g       *ABS*	00000000 _stack_size
0000011c g     F .text	000000d4 main
00000480 g     F .text	00000034 TM1638_Init
00000034 g     F .text	00000084 .hidden __divsi3
10000110 g       .stack	00000000 _estack
10000000 g       .data	00000000 _edata
000000b8 g     F .text	00000030 .hidden __modsi3
00000000 g       .text	00000000 start
10000000 g     O .bss	00000004 keys



Disassembly of section .text:

00000000 <start>:
start():
D:\GitHub\askorv32\fw\Debug/../Core/Startup/start.S:19
.global main

start:
	.option push
	.option norelax
	la gp, __global_pointer$
   0:	10000197          	auipc	gp,0x10000
   4:	7f018193          	addi	gp,gp,2032 # 100007f0 <__global_pointer$>
D:\GitHub\askorv32\fw\Debug/../Core/Startup/start.S:21
	.option pop
  	la sp, _estack
   8:	92018113          	addi	sp,gp,-1760 # 10000110 <_estack>
D:\GitHub\askorv32\fw\Debug/../Core/Startup/start.S:59
	addi x30, zero, 0
	addi x31, zero, 0
	*/

# Инициализация секции bss нулевыми значениями
	la a0, _sbss
   c:	81018513          	addi	a0,gp,-2032 # 10000000 <_edata>
D:\GitHub\askorv32\fw\Debug/../Core/Startup/start.S:60
	la a1, _ebss
  10:	81818593          	addi	a1,gp,-2024 # 10000008 <_ebss>
D:\GitHub\askorv32\fw\Debug/../Core/Startup/start.S:61
	bge a0, a1, end_init_bss
  14:	00b55863          	bge	a0,a1,24 <end_init_bss>

00000018 <loop_init_bss>:
loop_init_bss():
D:\GitHub\askorv32\fw\Debug/../Core/Startup/start.S:63
loop_init_bss:
	sw zero, 0(a0)
  18:	00052023          	sw	zero,0(a0)
D:\GitHub\askorv32\fw\Debug/../Core/Startup/start.S:64
	addi a0, a0, 4
  1c:	00450513          	addi	a0,a0,4
D:\GitHub\askorv32\fw\Debug/../Core/Startup/start.S:65
	blt a0, a1, loop_init_bss
  20:	feb54ce3          	blt	a0,a1,18 <loop_init_bss>

00000024 <end_init_bss>:
end_init_bss():
D:\GitHub\askorv32\fw\Debug/../Core/Startup/start.S:69
end_init_bss:

# Переход к функции main
	call main
  24:	0f8000ef          	jal	ra,11c <main>
	...

00000034 <__divsi3>:
__divsi3():
  34:	06054063          	bltz	a0,94 <__umodsi3+0x10>
  38:	0605c663          	bltz	a1,a4 <__umodsi3+0x20>

0000003c <__udivsi3>:
  3c:	00058613          	mv	a2,a1
  40:	00050593          	mv	a1,a0
  44:	fff00513          	li	a0,-1
  48:	02060c63          	beqz	a2,80 <__udivsi3+0x44>
  4c:	00100693          	li	a3,1
  50:	00b67a63          	bgeu	a2,a1,64 <__udivsi3+0x28>
  54:	00c05863          	blez	a2,64 <__udivsi3+0x28>
  58:	00161613          	slli	a2,a2,0x1
  5c:	00169693          	slli	a3,a3,0x1
  60:	feb66ae3          	bltu	a2,a1,54 <__udivsi3+0x18>
  64:	00000513          	li	a0,0
  68:	00c5e663          	bltu	a1,a2,74 <__udivsi3+0x38>
  6c:	40c585b3          	sub	a1,a1,a2
  70:	00d56533          	or	a0,a0,a3
  74:	0016d693          	srli	a3,a3,0x1
  78:	00165613          	srli	a2,a2,0x1
  7c:	fe0696e3          	bnez	a3,68 <__udivsi3+0x2c>
  80:	00008067          	ret

00000084 <__umodsi3>:
  84:	00008293          	mv	t0,ra
  88:	fb5ff0ef          	jal	ra,3c <__udivsi3>
  8c:	00058513          	mv	a0,a1
  90:	00028067          	jr	t0
  94:	40a00533          	neg	a0,a0
  98:	0005d863          	bgez	a1,a8 <__umodsi3+0x24>
  9c:	40b005b3          	neg	a1,a1
  a0:	f9dff06f          	j	3c <__udivsi3>
  a4:	40b005b3          	neg	a1,a1
  a8:	00008293          	mv	t0,ra
  ac:	f91ff0ef          	jal	ra,3c <__udivsi3>
  b0:	40a00533          	neg	a0,a0
  b4:	00028067          	jr	t0

000000b8 <__modsi3>:
__modsi3():
  b8:	00008293          	mv	t0,ra
  bc:	0005ca63          	bltz	a1,d0 <__modsi3+0x18>
  c0:	00054c63          	bltz	a0,d8 <__modsi3+0x20>
  c4:	f79ff0ef          	jal	ra,3c <__udivsi3>
  c8:	00058513          	mv	a0,a1
  cc:	00028067          	jr	t0
  d0:	40b005b3          	neg	a1,a1
  d4:	fe0558e3          	bgez	a0,c4 <__modsi3+0xc>
  d8:	40a00533          	neg	a0,a0
  dc:	f61ff0ef          	jal	ra,3c <__udivsi3>
  e0:	40b00533          	neg	a0,a1
  e4:	00028067          	jr	t0

000000e8 <GPIO_Init>:
GPIO_Init():
D:\GitHub\askorv32\fw\Debug/../Core/Src/gpio.c:12
 *****************************************************************************************
 */

#include "gpio.h"

void GPIO_Init(void) {
  e8:	ff010113          	addi	sp,sp,-16
  ec:	00812623          	sw	s0,12(sp)
  f0:	01010413          	addi	s0,sp,16
D:\GitHub\askorv32\fw\Debug/../Core/Src/gpio.c:13
	GPIO->MODE = 0;
  f4:	110007b7          	lui	a5,0x11000
  f8:	0007a023          	sw	zero,0(a5) # 11000000 <__global_pointer$+0xfff810>
D:\GitHub\askorv32\fw\Debug/../Core/Src/gpio.c:14
	GPIO->OUT  = 0;
  fc:	110007b7          	lui	a5,0x11000
 100:	0007a223          	sw	zero,4(a5) # 11000004 <__global_pointer$+0xfff814>
D:\GitHub\askorv32\fw\Debug/../Core/Src/gpio.c:15
	GPIO->IN   = 0;
 104:	110007b7          	lui	a5,0x11000
 108:	0007a423          	sw	zero,8(a5) # 11000008 <__global_pointer$+0xfff818>
D:\GitHub\askorv32\fw\Debug/../Core/Src/gpio.c:16
}
 10c:	00000013          	nop
 110:	00c12403          	lw	s0,12(sp)
 114:	01010113          	addi	sp,sp,16
 118:	00008067          	ret

0000011c <main>:
main():
D:\GitHub\askorv32\fw\Debug/../Core/Src/main.c:17
//unsigned int globalvar = 5;
unsigned int c;
unsigned int keys = 0;
unsigned int tn_keys = 0;

int main(void) {
 11c:	fd010113          	addi	sp,sp,-48
 120:	02112623          	sw	ra,44(sp)
 124:	02812423          	sw	s0,40(sp)
 128:	03010413          	addi	s0,sp,48
D:\GitHub\askorv32\fw\Debug/../Core/Src/main.c:19
	//#1 Инициализация периферийных устройства
	GPIO_Init();
 12c:	fbdff0ef          	jal	ra,e8 <GPIO_Init>
D:\GitHub\askorv32\fw\Debug/../Core/Src/main.c:20
	TM1638_Init();
 130:	350000ef          	jal	ra,480 <TM1638_Init>
D:\GitHub\askorv32\fw\Debug/../Core/Src/main.c:21
	STIM_Init();
 134:	2e0000ef          	jal	ra,414 <STIM_Init>
D:\GitHub\askorv32\fw\Debug/../Core/Src/main.c:22
	c = 1;
 138:	81418793          	addi	a5,gp,-2028 # 10000004 <c>
 13c:	00100713          	li	a4,1
 140:	00e7a023          	sw	a4,0(a5)
 144:	fff00793          	li	a5,-1
 148:	fef42223          	sw	a5,-28(s0)
GPIO_PinsMode():
D:\GitHub\askorv32\fw\Core\Inc/gpio.h:54
__INLINE GPIO_PinState GPIO_ReadPin(GPIO_PinName GPIO_Pin) {
	return (GPIO->IN >> GPIO_Pin) & 0x1;
}

__INLINE void GPIO_PinsMode(uint32_t PinsDir) {
	GPIO->MODE = PinsDir;
 14c:	110007b7          	lui	a5,0x11000
 150:	fe442703          	lw	a4,-28(s0)
 154:	00e7a023          	sw	a4,0(a5) # 11000000 <__global_pointer$+0xfff810>
 158:	00100793          	li	a5,1
 15c:	fef42423          	sw	a5,-24(s0)
STIM_STATE():
D:\GitHub\askorv32\fw\Core\Inc/tim.h:31
/*  Прототипы функций  */
void STIM_Init(void);


__INLINE void STIM_STATE(STIM_State TimState) {
	STIM->CR_EN = TimState;
 160:	130007b7          	lui	a5,0x13000
 164:	fe842703          	lw	a4,-24(s0)
 168:	00177713          	andi	a4,a4,1
 16c:	0ff77713          	andi	a4,a4,255
 170:	00177713          	andi	a4,a4,1
 174:	00371613          	slli	a2,a4,0x3
 178:	0047c703          	lbu	a4,4(a5) # 13000004 <__global_pointer$+0x2fff814>
 17c:	ff777713          	andi	a4,a4,-9
 180:	00070693          	mv	a3,a4
 184:	00060713          	mv	a4,a2
 188:	00e6e733          	or	a4,a3,a4
 18c:	00e78223          	sb	a4,4(a5)
main():
D:\GitHub\askorv32\fw\Debug/../Core/Src/main.c:27
	GPIO_PinsMode(0xFFFFFFFF); //Все порты на выход

	STIM_STATE(TIM_ENABLE);

	unsigned int count = 0;
 190:	fe042623          	sw	zero,-20(s0)
STIM_GET_COUNT():
D:\GitHub\askorv32\fw\Core\Inc/tim.h:35 (discriminator 1)
}

__INLINE uint32_t STIM_GET_COUNT(void) {
	return STIM->CNT;
 194:	130007b7          	lui	a5,0x13000
 198:	0107a783          	lw	a5,16(a5) # 13000010 <__global_pointer$+0x2fff820>
main():
D:\GitHub\askorv32\fw\Debug/../Core/Src/main.c:32 (discriminator 1)

	while(1) {

		//#Считывание значения таймера
		count = STIM_GET_COUNT();
 19c:	fef42623          	sw	a5,-20(s0)
TM1638_ReadKeys():
D:\GitHub\askorv32\fw\Core\Inc/tm1638.h:56 (discriminator 1)
__INLINE void TM1638_WriteLeds(uint32_t data) {
	TM1638->LEDS = data;
}

__INLINE uint32_t TM1638_ReadKeys(void) {
	return TM1638->KEYS;
 1a0:	120007b7          	lui	a5,0x12000
 1a4:	0087a703          	lw	a4,8(a5) # 12000008 <__global_pointer$+0x1fff818>
main():
D:\GitHub\askorv32\fw\Debug/../Core/Src/main.c:40 (discriminator 1)
		//#Светодиоды tangnano
		//GPIO_WritePins(~c);
		//GPIO_WritePins(count);

		//#Светодиоды tm1638
		keys = TM1638_ReadKeys();
 1a8:	10000797          	auipc	a5,0x10000
 1ac:	e5878793          	addi	a5,a5,-424 # 10000000 <_edata>
 1b0:	00e7a023          	sw	a4,0(a5)
D:\GitHub\askorv32\fw\Debug/../Core/Src/main.c:41 (discriminator 1)
		TM1638_WriteLeds(keys);
 1b4:	10000797          	auipc	a5,0x10000
 1b8:	e4c78793          	addi	a5,a5,-436 # 10000000 <_edata>
 1bc:	0007a783          	lw	a5,0(a5)
 1c0:	fcf42e23          	sw	a5,-36(s0)
TM1638_WriteLeds():
D:\GitHub\askorv32\fw\Core\Inc/tm1638.h:52 (discriminator 1)
	TM1638->LEDS = data;
 1c4:	120007b7          	lui	a5,0x12000
 1c8:	fdc42703          	lw	a4,-36(s0)
 1cc:	00e7a223          	sw	a4,4(a5) # 12000004 <__global_pointer$+0x1fff814>
main():
D:\GitHub\askorv32\fw\Debug/../Core/Src/main.c:45 (discriminator 1)

		//#Сегментный индикатор tm1638
		//TM1638_WriteSegs(c);
		TM1638_WriteSegs(dig_transform(count));
 1d0:	fec42503          	lw	a0,-20(s0)
 1d4:	01c000ef          	jal	ra,1f0 <dig_transform>
 1d8:	00050793          	mv	a5,a0
 1dc:	fef42023          	sw	a5,-32(s0)
TM1638_WriteSegs():
D:\GitHub\askorv32\fw\Core\Inc/tm1638.h:48 (discriminator 1)
	TM1638->SEGS = data;
 1e0:	120007b7          	lui	a5,0x12000
 1e4:	fe042703          	lw	a4,-32(s0)
 1e8:	00e7a023          	sw	a4,0(a5) # 12000000 <__global_pointer$+0x1fff810>
main():
D:\GitHub\askorv32\fw\Debug/../Core/Src/main.c:32 (discriminator 1)
		count = STIM_GET_COUNT();
 1ec:	fa9ff06f          	j	194 <main+0x78>

000001f0 <dig_transform>:
dig_transform():
D:\GitHub\askorv32\fw\Debug/../Core/Src/main.c:52

		//for(int i = 0; i<100000; i++);
	}
}

unsigned int dig_transform(unsigned int digit) {
 1f0:	fd010113          	addi	sp,sp,-48
 1f4:	02112623          	sw	ra,44(sp)
 1f8:	02812423          	sw	s0,40(sp)
 1fc:	03010413          	addi	s0,sp,48
 200:	fca42e23          	sw	a0,-36(s0)
D:\GitHub\askorv32\fw\Debug/../Core/Src/main.c:53
	unsigned int d_out = 0;
 204:	fe042623          	sw	zero,-20(s0)
D:\GitHub\askorv32\fw\Debug/../Core/Src/main.c:54
	unsigned int d_in  = digit;
 208:	fdc42783          	lw	a5,-36(s0)
 20c:	fef42423          	sw	a5,-24(s0)
D:\GitHub\askorv32\fw\Debug/../Core/Src/main.c:55
	d_in = d_in % 100000000;
 210:	fe842703          	lw	a4,-24(s0)
 214:	05f5e7b7          	lui	a5,0x5f5e
 218:	10078593          	addi	a1,a5,256 # 5f5e100 <_etext+0x5f5dc4c>
 21c:	00070513          	mv	a0,a4
 220:	e65ff0ef          	jal	ra,84 <__umodsi3>
 224:	00050793          	mv	a5,a0
 228:	fef42423          	sw	a5,-24(s0)
D:\GitHub\askorv32\fw\Debug/../Core/Src/main.c:56
	d_out = d_out | ((d_in / 10000000) << 28);
 22c:	fe842703          	lw	a4,-24(s0)
 230:	009897b7          	lui	a5,0x989
 234:	68078593          	addi	a1,a5,1664 # 989680 <_etext+0x9891cc>
 238:	00070513          	mv	a0,a4
 23c:	e01ff0ef          	jal	ra,3c <__udivsi3>
 240:	00050793          	mv	a5,a0
 244:	01c79793          	slli	a5,a5,0x1c
 248:	fec42703          	lw	a4,-20(s0)
 24c:	00f767b3          	or	a5,a4,a5
 250:	fef42623          	sw	a5,-20(s0)
D:\GitHub\askorv32\fw\Debug/../Core/Src/main.c:57
	d_in = d_in % 10000000;
 254:	fe842703          	lw	a4,-24(s0)
 258:	009897b7          	lui	a5,0x989
 25c:	68078593          	addi	a1,a5,1664 # 989680 <_etext+0x9891cc>
 260:	00070513          	mv	a0,a4
 264:	e21ff0ef          	jal	ra,84 <__umodsi3>
 268:	00050793          	mv	a5,a0
 26c:	fef42423          	sw	a5,-24(s0)
D:\GitHub\askorv32\fw\Debug/../Core/Src/main.c:58
	d_out = d_out | ((d_in / 1000000)  << 24);
 270:	fe842703          	lw	a4,-24(s0)
 274:	000f47b7          	lui	a5,0xf4
 278:	24078593          	addi	a1,a5,576 # f4240 <_etext+0xf3d8c>
 27c:	00070513          	mv	a0,a4
 280:	dbdff0ef          	jal	ra,3c <__udivsi3>
 284:	00050793          	mv	a5,a0
 288:	01879793          	slli	a5,a5,0x18
 28c:	fec42703          	lw	a4,-20(s0)
 290:	00f767b3          	or	a5,a4,a5
 294:	fef42623          	sw	a5,-20(s0)
D:\GitHub\askorv32\fw\Debug/../Core/Src/main.c:59
	d_in = d_in % 1000000;
 298:	fe842703          	lw	a4,-24(s0)
 29c:	000f47b7          	lui	a5,0xf4
 2a0:	24078593          	addi	a1,a5,576 # f4240 <_etext+0xf3d8c>
 2a4:	00070513          	mv	a0,a4
 2a8:	dddff0ef          	jal	ra,84 <__umodsi3>
 2ac:	00050793          	mv	a5,a0
 2b0:	fef42423          	sw	a5,-24(s0)
D:\GitHub\askorv32\fw\Debug/../Core/Src/main.c:60
	d_out = d_out | ((d_in / 100000)   << 20);
 2b4:	fe842703          	lw	a4,-24(s0)
 2b8:	000187b7          	lui	a5,0x18
 2bc:	6a078593          	addi	a1,a5,1696 # 186a0 <_etext+0x181ec>
 2c0:	00070513          	mv	a0,a4
 2c4:	d79ff0ef          	jal	ra,3c <__udivsi3>
 2c8:	00050793          	mv	a5,a0
 2cc:	01479793          	slli	a5,a5,0x14
 2d0:	fec42703          	lw	a4,-20(s0)
 2d4:	00f767b3          	or	a5,a4,a5
 2d8:	fef42623          	sw	a5,-20(s0)
D:\GitHub\askorv32\fw\Debug/../Core/Src/main.c:61
	d_in = d_in % 100000;
 2dc:	fe842703          	lw	a4,-24(s0)
 2e0:	000187b7          	lui	a5,0x18
 2e4:	6a078593          	addi	a1,a5,1696 # 186a0 <_etext+0x181ec>
 2e8:	00070513          	mv	a0,a4
 2ec:	d99ff0ef          	jal	ra,84 <__umodsi3>
 2f0:	00050793          	mv	a5,a0
 2f4:	fef42423          	sw	a5,-24(s0)
D:\GitHub\askorv32\fw\Debug/../Core/Src/main.c:62
	d_out = d_out | ((d_in / 10000)    << 16);
 2f8:	fe842703          	lw	a4,-24(s0)
 2fc:	000027b7          	lui	a5,0x2
 300:	71078593          	addi	a1,a5,1808 # 2710 <_etext+0x225c>
 304:	00070513          	mv	a0,a4
 308:	d35ff0ef          	jal	ra,3c <__udivsi3>
 30c:	00050793          	mv	a5,a0
 310:	01079793          	slli	a5,a5,0x10
 314:	fec42703          	lw	a4,-20(s0)
 318:	00f767b3          	or	a5,a4,a5
 31c:	fef42623          	sw	a5,-20(s0)
D:\GitHub\askorv32\fw\Debug/../Core/Src/main.c:63
	d_in = d_in % 10000;
 320:	fe842703          	lw	a4,-24(s0)
 324:	000027b7          	lui	a5,0x2
 328:	71078593          	addi	a1,a5,1808 # 2710 <_etext+0x225c>
 32c:	00070513          	mv	a0,a4
 330:	d55ff0ef          	jal	ra,84 <__umodsi3>
 334:	00050793          	mv	a5,a0
 338:	fef42423          	sw	a5,-24(s0)
D:\GitHub\askorv32\fw\Debug/../Core/Src/main.c:64
	d_out = d_out | ((d_in / 1000)     << 12);
 33c:	fe842783          	lw	a5,-24(s0)
 340:	3e800593          	li	a1,1000
 344:	00078513          	mv	a0,a5
 348:	cf5ff0ef          	jal	ra,3c <__udivsi3>
 34c:	00050793          	mv	a5,a0
 350:	00c79793          	slli	a5,a5,0xc
 354:	fec42703          	lw	a4,-20(s0)
 358:	00f767b3          	or	a5,a4,a5
 35c:	fef42623          	sw	a5,-20(s0)
D:\GitHub\askorv32\fw\Debug/../Core/Src/main.c:65
	d_in = d_in % 1000;
 360:	fe842783          	lw	a5,-24(s0)
 364:	3e800593          	li	a1,1000
 368:	00078513          	mv	a0,a5
 36c:	d19ff0ef          	jal	ra,84 <__umodsi3>
 370:	00050793          	mv	a5,a0
 374:	fef42423          	sw	a5,-24(s0)
D:\GitHub\askorv32\fw\Debug/../Core/Src/main.c:66
	d_out = d_out | ((d_in / 100)      <<  8);
 378:	fe842783          	lw	a5,-24(s0)
 37c:	06400593          	li	a1,100
 380:	00078513          	mv	a0,a5
 384:	cb9ff0ef          	jal	ra,3c <__udivsi3>
 388:	00050793          	mv	a5,a0
 38c:	00879793          	slli	a5,a5,0x8
 390:	fec42703          	lw	a4,-20(s0)
 394:	00f767b3          	or	a5,a4,a5
 398:	fef42623          	sw	a5,-20(s0)
D:\GitHub\askorv32\fw\Debug/../Core/Src/main.c:67
	d_in = d_in % 100;
 39c:	fe842783          	lw	a5,-24(s0)
 3a0:	06400593          	li	a1,100
 3a4:	00078513          	mv	a0,a5
 3a8:	cddff0ef          	jal	ra,84 <__umodsi3>
 3ac:	00050793          	mv	a5,a0
 3b0:	fef42423          	sw	a5,-24(s0)
D:\GitHub\askorv32\fw\Debug/../Core/Src/main.c:68
	d_out = d_out | ((d_in / 10)       <<  4);
 3b4:	fe842783          	lw	a5,-24(s0)
 3b8:	00a00593          	li	a1,10
 3bc:	00078513          	mv	a0,a5
 3c0:	c7dff0ef          	jal	ra,3c <__udivsi3>
 3c4:	00050793          	mv	a5,a0
 3c8:	00479793          	slli	a5,a5,0x4
 3cc:	fec42703          	lw	a4,-20(s0)
 3d0:	00f767b3          	or	a5,a4,a5
 3d4:	fef42623          	sw	a5,-20(s0)
D:\GitHub\askorv32\fw\Debug/../Core/Src/main.c:69
	d_out = d_out |  (d_in % 10);
 3d8:	fe842783          	lw	a5,-24(s0)
 3dc:	00a00593          	li	a1,10
 3e0:	00078513          	mv	a0,a5
 3e4:	ca1ff0ef          	jal	ra,84 <__umodsi3>
 3e8:	00050793          	mv	a5,a0
 3ec:	00078713          	mv	a4,a5
 3f0:	fec42783          	lw	a5,-20(s0)
 3f4:	00e7e7b3          	or	a5,a5,a4
 3f8:	fef42623          	sw	a5,-20(s0)
D:\GitHub\askorv32\fw\Debug/../Core/Src/main.c:70
	return d_out;
 3fc:	fec42783          	lw	a5,-20(s0)
D:\GitHub\askorv32\fw\Debug/../Core/Src/main.c:71
}
 400:	00078513          	mv	a0,a5
 404:	02c12083          	lw	ra,44(sp)
 408:	02812403          	lw	s0,40(sp)
 40c:	03010113          	addi	sp,sp,48
 410:	00008067          	ret

00000414 <STIM_Init>:
STIM_Init():
D:\GitHub\askorv32\fw\Debug/../Core/Src/tim.c:12
 *****************************************************************************************
 */

#include "tim.h"

void STIM_Init(void) {
 414:	ff010113          	addi	sp,sp,-16
 418:	00812623          	sw	s0,12(sp)
 41c:	01010413          	addi	s0,sp,16
D:\GitHub\askorv32\fw\Debug/../Core/Src/tim.c:14

	STIM->CR_EN = 0;
 420:	130007b7          	lui	a5,0x13000
 424:	0047c703          	lbu	a4,4(a5) # 13000004 <__global_pointer$+0x2fff814>
 428:	ff777713          	andi	a4,a4,-9
 42c:	00e78223          	sb	a4,4(a5)
D:\GitHub\askorv32\fw\Debug/../Core/Src/tim.c:17

	/* Set the Prescaler value */
	STIM->PR = STIM_PRESCALER;
 430:	130007b7          	lui	a5,0x13000
 434:	000f4737          	lui	a4,0xf4
 438:	24070713          	addi	a4,a4,576 # f4240 <_etext+0xf3d8c>
 43c:	00e7a023          	sw	a4,0(a5) # 13000000 <__global_pointer$+0x2fff810>
D:\GitHub\askorv32\fw\Debug/../Core/Src/tim.c:20

	/* Set the Period value */
	STIM->PER = STIM_PERIOD;
 440:	130007b7          	lui	a5,0x13000
 444:	06400713          	li	a4,100
 448:	00e7a423          	sw	a4,8(a5) # 13000008 <__global_pointer$+0x2fff818>
D:\GitHub\askorv32\fw\Debug/../Core/Src/tim.c:23

	/* Set the Autoreload value */
	STIM->CR_ARP = STIM_AUTO_RELOAD_PRELOAD;
 44c:	130007b7          	lui	a5,0x13000
 450:	0047c703          	lbu	a4,4(a5) # 13000004 <__global_pointer$+0x2fff814>
 454:	00476713          	ori	a4,a4,4
 458:	00e78223          	sb	a4,4(a5)
D:\GitHub\askorv32\fw\Debug/../Core/Src/tim.c:26

	/* Select the Counter Mode */
	STIM->CR_CM = STIM_COUNTER_MODE;
 45c:	130007b7          	lui	a5,0x13000
 460:	0047c703          	lbu	a4,4(a5) # 13000004 <__global_pointer$+0x2fff814>
 464:	ffc77713          	andi	a4,a4,-4
 468:	00176713          	ori	a4,a4,1
 46c:	00e78223          	sb	a4,4(a5)
D:\GitHub\askorv32\fw\Debug/../Core/Src/tim.c:28

}
 470:	00000013          	nop
 474:	00c12403          	lw	s0,12(sp)
 478:	01010113          	addi	sp,sp,16
 47c:	00008067          	ret

00000480 <TM1638_Init>:
TM1638_Init():
D:\GitHub\askorv32\fw\Debug/../Core/Src/tm1638.c:12
 *****************************************************************************************
 */

#include "tm1638.h"

void TM1638_Init(void) {
 480:	ff010113          	addi	sp,sp,-16
 484:	00812623          	sw	s0,12(sp)
 488:	01010413          	addi	s0,sp,16
D:\GitHub\askorv32\fw\Debug/../Core/Src/tm1638.c:13
	TM1638->SEGS = 0;
 48c:	120007b7          	lui	a5,0x12000
 490:	0007a023          	sw	zero,0(a5) # 12000000 <__global_pointer$+0x1fff810>
D:\GitHub\askorv32\fw\Debug/../Core/Src/tm1638.c:14
	TM1638->LEDS = 0;
 494:	120007b7          	lui	a5,0x12000
 498:	0007a223          	sw	zero,4(a5) # 12000004 <__global_pointer$+0x1fff814>
D:\GitHub\askorv32\fw\Debug/../Core/Src/tm1638.c:15
	TM1638->KEYS = 0; //Можно не записывать нули
 49c:	120007b7          	lui	a5,0x12000
 4a0:	0007a423          	sw	zero,8(a5) # 12000008 <__global_pointer$+0x1fff818>
D:\GitHub\askorv32\fw\Debug/../Core/Src/tm1638.c:16
}
 4a4:	00000013          	nop
 4a8:	00c12403          	lw	s0,12(sp)
 4ac:	01010113          	addi	sp,sp,16
 4b0:	00008067          	ret
